; Function Attrs: mustprogress uwtable
define void @_ZN4YAML7Emitter26FlowMapPrepareLongKeyValueENS_15EmitterNodeType5valueE(ptr noundef nonnull align 8 dereferenceable(72) %0, i32 noundef %1) local_unnamed_addr #0 align 2 {
  %3 = alloca i8, align 1
  %4 = alloca i8, align 1
  %5 = load ptr, ptr %0, align 8, !tbaa !3
  %6 = tail call noundef i64 @_ZNK4YAML12EmitterState10LastIndentEv(ptr noundef nonnull align 8 dereferenceable(224) %5)
  %7 = load ptr, ptr %0, align 8, !tbaa !3
  %8 = getelementptr inbounds nuw i8, ptr %7, i64 208
  %9 = load i8, ptr %8, align 8, !tbaa !48, !range !39, !noundef !40
  %10 = trunc nuw i8 %9 to i1
  br i1 %10, label %_ZNK4YAML12EmitterState12HasBegunNodeEv.exit.thread, label %11

11:                                               ; preds = %2
  %12 = getelementptr inbounds nuw i8, ptr %7, i64 210
  %13 = load i8, ptr %12, align 2, !tbaa !49, !range !39, !noundef !40
  %14 = trunc nuw i8 %13 to i1
  br i1 %14, label %_ZNK4YAML12EmitterState12HasBegunNodeEv.exit.thread, label %_ZNK4YAML12EmitterState12HasBegunNodeEv.exit

_ZNK4YAML12EmitterState12HasBegunNodeEv.exit:     ; preds = %11
  %15 = getelementptr inbounds nuw i8, ptr %7, i64 211
  %16 = load i8, ptr %15, align 1, !tbaa !52, !range !39, !noundef !40
  %17 = trunc nuw i8 %16 to i1
  br i1 %17, label %_ZNK4YAML12EmitterState12HasBegunNodeEv.exit.thread, label %18

18:                                               ; preds = %_ZNK4YAML12EmitterState12HasBegunNodeEv.exit
  %19 = getelementptr inbounds nuw i8, ptr %0, i64 8
  %20 = getelementptr inbounds nuw i8, ptr %0, i64 64
  %21 = load i8, ptr %20, align 8, !tbaa !51, !range !39, !noundef !40
  %22 = trunc nuw i8 %21 to i1
  br i1 %22, label %23, label %24

23:                                               ; preds = %18
  tail call void @_ZN4YAML15ostream_wrapper5writeEPKcm(ptr noundef nonnull align 8 dereferenceable(57) %19, ptr noundef nonnull @.str.1, i64 noundef 1)
  br label %24

24:                                               ; preds = %23, %18
  %25 = getelementptr inbounds nuw i8, ptr %0, i64 56
  %26 = load i64, ptr %25, align 8, !tbaa !50
  %27 = icmp ult i64 %26, %6
  br i1 %27, label %.lr.ph.i, label %_ZN4YAMLlsERNS_15ostream_wrapperERKNS_8IndentToE.exit

.lr.ph.i:                                         ; preds = %24, %.lr.ph.i
  call void @llvm.lifetime.start.p0(i64 1, ptr nonnull %4)
  store i8 32, ptr %4, align 1, !tbaa !20
  call void @_ZN4YAML15ostream_wrapper5writeEPKcm(ptr noundef nonnull align 8 dereferenceable(57) %19, ptr noundef nonnull %4, i64 noundef 1)
  call void @llvm.lifetime.end.p0(i64 1, ptr nonnull %4)
  %28 = load i64, ptr %25, align 8, !tbaa !50
  %29 = icmp ult i64 %28, %6
  br i1 %29, label %.lr.ph.i, label %_ZN4YAMLlsERNS_15ostream_wrapperERKNS_8IndentToE.exit, !llvm.loop !54

_ZN4YAMLlsERNS_15ostream_wrapperERKNS_8IndentToE.exit: ; preds = %.lr.ph.i, %24
  call void @_ZN4YAML15ostream_wrapper5writeEPKcm(ptr noundef nonnull align 8 dereferenceable(57) %19, ptr noundef nonnull @.str.12, i64 noundef 1)
  br label %_ZNK4YAML12EmitterState12HasBegunNodeEv.exit.thread

_ZNK4YAML12EmitterState12HasBegunNodeEv.exit.thread: ; preds = %2, %11, %_ZN4YAMLlsERNS_15ostream_wrapperERKNS_8IndentToE.exit, %_ZNK4YAML12EmitterState12HasBegunNodeEv.exit
  switch i32 %1, label %_ZN4YAML7Emitter15SpaceOrIndentToEbm.exit [
    i32 5, label %30
    i32 1, label %30
    i32 2, label %30
    i32 3, label %30
  ]

30:                                               ; preds = %_ZNK4YAML12EmitterState12HasBegunNodeEv.exit.thread, %_ZNK4YAML12EmitterState12HasBegunNodeEv.exit.thread, %_ZNK4YAML12EmitterState12HasBegunNodeEv.exit.thread, %_ZNK4YAML12EmitterState12HasBegunNodeEv.exit.thread
  %31 = load ptr, ptr %0, align 8, !tbaa !3
  %32 = getelementptr inbounds nuw i8, ptr %31, i64 208
  %33 = load i8, ptr %32, align 8, !tbaa !48, !range !39, !noundef !40
  %34 = trunc nuw i8 %33 to i1
  %35 = getelementptr inbounds nuw i8, ptr %31, i64 210
  %36 = load i8, ptr %35, align 2, !range !39
  %37 = trunc nuw i8 %36 to i1
  %38 = select i1 %34, i1 true, i1 %37
  br i1 %38, label %42, label %39

39:                                               ; preds = %30
  %40 = call noundef i64 @_ZNK4YAML12EmitterState18CurGroupChildCountEv(ptr noundef nonnull align 8 dereferenceable(224) %31)
  %41 = icmp ne i64 %40, 0
  br label %42

42:                                               ; preds = %39, %30
  %43 = phi i1 [ true, %30 ], [ %41, %39 ]
  %44 = getelementptr inbounds nuw i8, ptr %0, i64 8
  %45 = getelementptr inbounds nuw i8, ptr %0, i64 64
  %46 = load i8, ptr %45, align 8, !tbaa !51, !range !39, !noundef !40
  %47 = trunc nuw i8 %46 to i1
  br i1 %47, label %48, label %49

48:                                               ; preds = %42
  call void @_ZN4YAML15ostream_wrapper5writeEPKcm(ptr noundef nonnull align 8 dereferenceable(57) %44, ptr noundef nonnull @.str.1, i64 noundef 1)
  br label %49

49:                                               ; preds = %48, %42
  %50 = getelementptr inbounds nuw i8, ptr %0, i64 56
  %51 = load i64, ptr %50, align 8, !tbaa !50
  %.not.i = icmp ne i64 %51, 0
  %brmerge.not.i = and i1 %43, %.not.i
  br i1 %brmerge.not.i, label %52, label %53

52:                                               ; preds = %49
  call void @_ZN4YAML15ostream_wrapper5writeEPKcm(ptr noundef nonnull align 8 dereferenceable(57) %44, ptr noundef nonnull @.str.13, i64 noundef 1)
  %.pre.i = load i64, ptr %50, align 8, !tbaa !50
  br label %53

53:                                               ; preds = %52, %49
  %54 = phi i64 [ %51, %49 ], [ %.pre.i, %52 ]
  %55 = icmp ult i64 %54, %6
  br i1 %55, label %.lr.ph.i.i, label %_ZN4YAML7Emitter15SpaceOrIndentToEbm.exit

.lr.ph.i.i:                                       ; preds = %53, %.lr.ph.i.i
  call void @llvm.lifetime.start.p0(i64 1, ptr nonnull %3)
  store i8 32, ptr %3, align 1, !tbaa !20
  call void @_ZN4YAML15ostream_wrapper5writeEPKcm(ptr noundef nonnull align 8 dereferenceable(57) %44, ptr noundef nonnull %3, i64 noundef 1)
  call void @llvm.lifetime.end.p0(i64 1, ptr nonnull %3)
  %56 = load i64, ptr %50, align 8, !tbaa !50
  %57 = icmp ult i64 %56, %6
  br i1 %57, label %.lr.ph.i.i, label %_ZN4YAML7Emitter15SpaceOrIndentToEbm.exit, !llvm.loop !54

_ZN4YAML7Emitter15SpaceOrIndentToEbm.exit:        ; preds = %.lr.ph.i.i, %53, %_ZNK4YAML12EmitterState12HasBegunNodeEv.exit.thread
  ret void
}